target datalayout = "e-m:e-p270:32:32-p271:32:32-p272:64:64-i64:64-i128:128-f80:128-n8:16:32:64-S128"
target triple = "x86_64-pc-linux-gnu"

%struct.nstime_t = type { i64, i32 }
%struct.wtap_rec = type { i32, i32, i32, %struct.nstime_t, i32, %struct.nstime_t, i8, %union.anon.0, ptr, i8, %struct.Buffer, %struct.Buffer }
%union.anon.0 = type { %struct.wtap_packet_header }
%struct.wtap_packet_header = type { i32, i32, i32, i32, %union.wtap_pseudo_header }
%union.wtap_pseudo_header = type { %struct.erf_mc_phdr }
%struct.erf_mc_phdr = type { %struct.erf_phdr, [16 x %struct.erf_ehdr], %union.anon.3 }
%struct.erf_phdr = type { i64, i8, i8, i16, i16, i16 }
%struct.erf_ehdr = type { i64 }
%union.anon.3 = type { i32 }
%struct.Buffer = type { ptr, i64, i64, i64 }

; Function Attrs: null_pointer_is_valid sspstrong uwtable
define void @epan_dissect_run_with_taps(ptr noundef %0, i32 noundef %1, ptr noundef %2, ptr noundef %3, ptr noundef %4) #5 {
  %6 = alloca ptr, align 8
  %7 = alloca i32, align 4
  %8 = alloca ptr, align 8
  %9 = alloca ptr, align 8
  %10 = alloca ptr, align 8
  store ptr %0, ptr %6, align 8
  store i32 %1, ptr %7, align 4
  store ptr %2, ptr %8, align 8
  store ptr %3, ptr %9, align 8
  store ptr %4, ptr %10, align 8
  call void @wmem_enter_packet_scope()
  %11 = load ptr, ptr %6, align 8
  call void @tap_queue_init(ptr noundef %11)
  %12 = load ptr, ptr %6, align 8
  %13 = load i32, ptr %7, align 4
  %14 = load ptr, ptr %8, align 8
  %15 = load ptr, ptr %9, align 8
  %16 = load ptr, ptr %10, align 8
  call void @dissect_record(ptr noundef %12, i32 noundef %13, ptr noundef %14, ptr noundef %15, ptr noundef %16)
  %17 = load ptr, ptr %6, align 8
  call void @tap_push_tapped_queue(ptr noundef %17)
  call void @wmem_leave_packet_scope()
  %18 = load ptr, ptr %8, align 8
  %19 = getelementptr inbounds nuw %struct.wtap_rec, ptr %18, i32 0, i32 8
  %20 = load ptr, ptr %19, align 8
  call void @wtap_block_unref(ptr noundef %20)
  %21 = load ptr, ptr %8, align 8
  %22 = getelementptr inbounds nuw %struct.wtap_rec, ptr %21, i32 0, i32 8
  store ptr null, ptr %22, align 8
  ret void
}