; Function Attrs: null_pointer_is_valid sspstrong uwtable
define void @epan_dissect_run_with_taps(ptr noundef %0, i32 noundef %1, ptr noundef %2, ptr noundef %3, ptr noundef %4) local_unnamed_addr #6 {
  tail call void @wmem_enter_packet_scope()
  tail call void @tap_queue_init(ptr noundef %0)
  tail call void @dissect_record(ptr noundef %0, i32 noundef %1, ptr noundef %2, ptr noundef %3, ptr noundef %4)
  tail call void @tap_push_tapped_queue(ptr noundef %0)
  tail call void @wmem_leave_packet_scope()
  %6 = getelementptr inbounds nuw i8, ptr %2, i64 232
  %7 = load ptr, ptr %6, align 8
  tail call void @wtap_block_unref(ptr noundef %7)
  store ptr null, ptr %6, align 8
  ret void
}